; Function Attrs: mustprogress nounwind uwtable
define dso_local void @_ZN4llvm10MCStreamer30generateCompactUnwindEncodingsEPNS_12MCAsmBackendE(ptr nocapture noundef nonnull readonly align 8 dereferenceable(288) %0, ptr noundef %1) local_unnamed_addr #0 align 2 {
  %3 = getelementptr inbounds nuw i8, ptr %0, i64 24
  %4 = load ptr, ptr %3, align 8
  %5 = getelementptr inbounds i8, ptr %0, i64 32
  %6 = load ptr, ptr %5, align 8
  %.not1011 = icmp eq ptr %4, %6
  br i1 %.not1011, label %._crit_edge, label %.lr.ph

.lr.ph:                                           ; preds = %2
  %.not = icmp eq ptr %1, null
  %7 = getelementptr inbounds nuw i8, ptr %0, i64 8
  br i1 %.not, label %.lr.ph.split.us, label %.lr.ph.split

.lr.ph.split.us:                                  ; preds = %.lr.ph, %.lr.ph.split.us
  %.sroa.07.012.us = phi ptr [ %9, %.lr.ph.split.us ], [ %4, %.lr.ph ]
  %8 = getelementptr inbounds nuw i8, ptr %.sroa.07.012.us, i64 72
  store i64 0, ptr %8, align 8
  %9 = getelementptr inbounds i8, ptr %.sroa.07.012.us, i64 96
  %.not10.us = icmp eq ptr %9, %6
  br i1 %.not10.us, label %._crit_edge, label %.lr.ph.split.us

.lr.ph.split:                                     ; preds = %.lr.ph, %.lr.ph.split
  %.sroa.07.012 = phi ptr [ %16, %.lr.ph.split ], [ %4, %.lr.ph ]
  %10 = load ptr, ptr %7, align 8
  %11 = load ptr, ptr %1, align 8
  %12 = getelementptr inbounds i8, ptr %11, i64 216
  %13 = load ptr, ptr %12, align 8
  %14 = tail call noundef i64 %13(ptr noundef nonnull align 8 dereferenceable(16) %1, ptr noundef nonnull %.sroa.07.012, ptr noundef %10) #23
  %15 = getelementptr inbounds nuw i8, ptr %.sroa.07.012, i64 72
  store i64 %14, ptr %15, align 8
  %16 = getelementptr inbounds i8, ptr %.sroa.07.012, i64 96
  %.not10 = icmp eq ptr %16, %6
  br i1 %.not10, label %._crit_edge, label %.lr.ph.split

._crit_edge:                                      ; preds = %.lr.ph.split, %.lr.ph.split.us, %2
  ret void
}